; Function Attrs: nounwind uwtable
define ptr @Ivy_ManDsdConstruct(ptr noundef %0, ptr noundef %1, ptr noundef %2) local_unnamed_addr #0 {
  %4 = getelementptr i8, ptr %1, i64 4
  %.val1114 = load i32, ptr %4, align 4
  %5 = icmp sgt i32 %.val1114, 0
  br i1 %5, label %.lr.ph, label %.critedge

.lr.ph:                                           ; preds = %3
  %6 = getelementptr i8, ptr %1, i64 8
  br label %7

7:                                                ; preds = %.lr.ph, %7
  %indvars.iv = phi i64 [ 0, %.lr.ph ], [ %indvars.iv.next, %7 ]
  %.val12 = load ptr, ptr %6, align 8
  %8 = getelementptr inbounds nuw i32, ptr %.val12, i64 %indvars.iv
  %9 = load i32, ptr %8, align 4
  %10 = ashr i32 %9, 8
  store i32 %10, ptr %8, align 4
  %indvars.iv.next = add nuw nsw i64 %indvars.iv, 1
  %.val11 = load i32, ptr %4, align 4
  %11 = sext i32 %.val11 to i64
  %12 = icmp slt i64 %indvars.iv.next, %11
  br i1 %12, label %7, label %.critedge, !llvm.loop !18

.critedge:                                        ; preds = %7, %3
  %13 = getelementptr i8, ptr %2, i64 4
  %.val = load i32, ptr %13, align 4
  %14 = add nsw i32 %.val, -1
  %15 = tail call ptr @Ivy_ManDsdConstruct_rec(ptr noundef %0, ptr noundef nonnull %1, i32 noundef %14, ptr noundef %2)
  ret ptr %15
}